target datalayout = "e-m:e-p270:32:32-p271:32:32-p272:64:64-i64:64-i128:128-f80:128-n8:16:32:64-S128"
target triple = "x86_64-pc-linux-gnu"

%struct.jit_State = type { %struct.GCtrace, ptr, ptr, ptr, ptr, ptr, ptr, i32, i32, i32, i8, i8, %struct.IRType1, i8, %struct.FoldState, ptr, i32, i32, i32, i32, i32, i32, i32, [1 x i32], [5 x %union.TValue], [3 x %union.TValue], ptr, i32, i32, i32, i32, ptr, ptr, i32, i32, i8, ptr, i32, i32, i16, [101 x i16], [258 x i32], [15 x i32], [16 x ptr], [64 x %struct.HotPenalty], i32, [16 x %struct.BPropEntry], i32, %struct.ScEvEntry, ptr, i32, i32, i32, ptr, i32, i32, ptr, ptr, ptr, i64, i64, %union.TValue, ptr, i32, i32 }
%struct.GCtrace = type { %struct.GCRef, i8, i8, i16, i32, i32, %struct.GCRef, ptr, i32, i32, ptr, ptr, %struct.GCRef, %struct.MRef, i32, i32, ptr, i32, i16, i16, i16, i16, i16, i16, i16, i8, i8, i8, i8 }
%struct.GCRef = type { i64 }
%struct.MRef = type { i64 }
%struct.IRType1 = type { i8 }
%struct.FoldState = type { %union.IRIns, [2 x %union.IRIns], [2 x %union.IRIns] }
%union.IRIns = type { %struct.GCRef }
%struct.HotPenalty = type { %struct.MRef, i16, i16 }
%struct.BPropEntry = type { i16, i16, i32 }
%struct.ScEvEntry = type { %struct.MRef, i16, i16, i16, i16, %struct.IRType1, i8 }
%union.TValue = type { i64 }
%struct.anon = type { i16, i16, i16, i16 }

; Function Attrs: alwaysinline nounwind uwtable
define internal void @lj_ir_set_(ptr noundef %0, i16 noundef zeroext %1, i16 noundef zeroext %2, i16 noundef zeroext %3) #5 {
  %5 = alloca ptr, align 8
  %6 = alloca i16, align 2
  %7 = alloca i16, align 2
  %8 = alloca i16, align 2
  store ptr %0, ptr %5, align 8, !tbaa !4
  store i16 %1, ptr %6, align 2, !tbaa !36
  store i16 %2, ptr %7, align 2, !tbaa !36
  store i16 %3, ptr %8, align 2, !tbaa !36
  %9 = load i16, ptr %6, align 2, !tbaa !36
  %10 = load ptr, ptr %5, align 8, !tbaa !4
  %11 = getelementptr inbounds nuw %struct.jit_State, ptr %10, i32 0, i32 14
  %12 = getelementptr inbounds nuw %struct.FoldState, ptr %11, i32 0, i32 0
  %13 = getelementptr inbounds nuw %struct.anon, ptr %12, i32 0, i32 2
  store i16 %9, ptr %13, align 4, !tbaa !35
  %14 = load i16, ptr %7, align 2, !tbaa !36
  %15 = load ptr, ptr %5, align 8, !tbaa !4
  %16 = getelementptr inbounds nuw %struct.jit_State, ptr %15, i32 0, i32 14
  %17 = getelementptr inbounds nuw %struct.FoldState, ptr %16, i32 0, i32 0
  %18 = getelementptr inbounds nuw %struct.anon, ptr %17, i32 0, i32 0
  store i16 %14, ptr %18, align 8, !tbaa !35
  %19 = load i16, ptr %8, align 2, !tbaa !36
  %20 = load ptr, ptr %5, align 8, !tbaa !4
  %21 = getelementptr inbounds nuw %struct.jit_State, ptr %20, i32 0, i32 14
  %22 = getelementptr inbounds nuw %struct.FoldState, ptr %21, i32 0, i32 0
  %23 = getelementptr inbounds nuw %struct.anon, ptr %22, i32 0, i32 1
  store i16 %19, ptr %23, align 2, !tbaa !35
  ret void
}

; Function Attrs: nounwind uwtable
define hidden i32 @lj_ir_tonum(ptr noundef %0, i32 noundef %1) #3 {
  %3 = alloca ptr, align 8
  %4 = alloca i32, align 4
  store ptr %0, ptr %3, align 8, !tbaa !4
  store i32 %1, ptr %4, align 4, !tbaa !32
  %5 = load i32, ptr %4, align 4, !tbaa !32
  %6 = and i32 %5, 520093696
  %7 = icmp eq i32 %6, 234881024
  br i1 %7, label %34, label %8

8:                                                ; preds = %2
  %9 = load i32, ptr %4, align 4, !tbaa !32
  %10 = lshr i32 %9, 24
  %11 = and i32 %10, 31
  %12 = sub i32 %11, 15
  %13 = icmp ule i32 %12, 4
  br i1 %13, label %14, label %20

14:                                               ; preds = %8
  %15 = load ptr, ptr %3, align 8, !tbaa !4
  %16 = load i32, ptr %4, align 4, !tbaa !32
  %17 = trunc i32 %16 to i16
  call void @lj_ir_set_(ptr noundef %15, i16 noundef zeroext 23310, i16 noundef zeroext %17, i16 noundef zeroext 467)
  %18 = load ptr, ptr %3, align 8, !tbaa !4
  %19 = call i32 @lj_opt_fold(ptr noundef %18)
  store i32 %19, ptr %4, align 4, !tbaa !32
  br label %33

20:                                               ; preds = %8
  %21 = load i32, ptr %4, align 4, !tbaa !32
  %22 = and i32 %21, 520093696
  %23 = icmp eq i32 %22, 67108864
  br i1 %23, label %24, label %30

24:                                               ; preds = %20
  %25 = load ptr, ptr %3, align 8, !tbaa !4
  %26 = load i32, ptr %4, align 4, !tbaa !32
  %27 = trunc i32 %26 to i16
  call void @lj_ir_set_(ptr noundef %25, i16 noundef zeroext 24206, i16 noundef zeroext %27, i16 noundef zeroext 0)
  %28 = load ptr, ptr %3, align 8, !tbaa !4
  %29 = call i32 @lj_opt_fold(ptr noundef %28)
  store i32 %29, ptr %4, align 4, !tbaa !32
  br label %32

30:                                               ; preds = %20
  %31 = load ptr, ptr %3, align 8, !tbaa !4
  call void @lj_trace_err(ptr noundef %31, i32 noundef 11) #11
  unreachable

32:                                               ; preds = %24
  br label %33

33:                                               ; preds = %32, %14
  br label %34

34:                                               ; preds = %33, %2
  %35 = load i32, ptr %4, align 4, !tbaa !32
  ret i32 %35
}