; Function Attrs: nounwind uwtable
define hidden i32 @lj_ir_tonum(ptr noundef %0, i32 noundef %1) local_unnamed_addr #6 {
  %3 = and i32 %1, 520093696
  %4 = icmp eq i32 %3, 234881024
  br i1 %4, label %18, label %5

5:                                                ; preds = %2
  %6 = lshr i32 %1, 24
  %7 = and i32 %6, 31
  %8 = add nsw i32 %7, -15
  %9 = icmp ult i32 %8, 5
  br i1 %9, label %.sink.split, label %10

10:                                               ; preds = %5
  %11 = icmp eq i32 %3, 67108864
  br i1 %11, label %.sink.split, label %12

12:                                               ; preds = %10
  tail call void @lj_trace_err(ptr noundef %0, i32 noundef 11) #14
  unreachable

.sink.split:                                      ; preds = %10, %5
  %.sink14 = phi i16 [ 23310, %5 ], [ 24206, %10 ]
  %.sink = phi i16 [ 467, %5 ], [ 0, %10 ]
  %13 = trunc i32 %1 to i16
  %14 = getelementptr inbounds nuw i8, ptr %0, i64 184
  %15 = getelementptr inbounds nuw i8, ptr %0, i64 188
  store i16 %.sink14, ptr %15, align 4, !tbaa !33
  store i16 %13, ptr %14, align 8, !tbaa !33
  %16 = getelementptr inbounds nuw i8, ptr %0, i64 186
  store i16 %.sink, ptr %16, align 2, !tbaa !33
  %17 = tail call i32 @lj_opt_fold(ptr noundef %0) #13
  br label %18

18:                                               ; preds = %.sink.split, %2
  %.0 = phi i32 [ %1, %2 ], [ %17, %.sink.split ]
  ret i32 %.0
}